target datalayout = "e-m:e-p270:32:32-p271:32:32-p272:64:64-i64:64-i128:128-f80:128-n8:16:32:64-S128"
target triple = "x86_64-pc-linux-gnu"

; Function Attrs: inlinehint mustprogress nounwind uwtable
define linkonce_odr noundef nonnull align 4 dereferenceable(4) ptr @_ZSt3minIiERKT_S2_S2_(ptr noundef nonnull align 4 dereferenceable(4) %0, ptr noundef nonnull align 4 dereferenceable(4) %1) #0 comdat {
  %3 = alloca ptr, align 8
  %4 = alloca ptr, align 8
  %5 = alloca ptr, align 8
  store ptr %0, ptr %4, align 8, !tbaa !179
  store ptr %1, ptr %5, align 8, !tbaa !179
  %6 = load ptr, ptr %5, align 8, !tbaa !179
  %7 = load i32, ptr %6, align 4, !tbaa !48
  %8 = load ptr, ptr %4, align 8, !tbaa !179
  %9 = load i32, ptr %8, align 4, !tbaa !48
  %10 = icmp slt i32 %7, %9
  br i1 %10, label %11, label %13

11:                                               ; preds = %2
  %12 = load ptr, ptr %5, align 8, !tbaa !179
  store ptr %12, ptr %3, align 8
  br label %15

13:                                               ; preds = %2
  %14 = load ptr, ptr %4, align 8, !tbaa !179
  store ptr %14, ptr %3, align 8
  br label %15

15:                                               ; preds = %13, %11
  %16 = load ptr, ptr %3, align 8
  ret ptr %16
}

; Function Attrs: inlinehint mustprogress nounwind uwtable
define linkonce_odr noundef nonnull align 4 dereferenceable(4) ptr @_ZSt3maxIiERKT_S2_S2_(ptr noundef nonnull align 4 dereferenceable(4) %0, ptr noundef nonnull align 4 dereferenceable(4) %1) #0 comdat {
  %3 = alloca ptr, align 8
  %4 = alloca ptr, align 8
  %5 = alloca ptr, align 8
  store ptr %0, ptr %4, align 8, !tbaa !179
  store ptr %1, ptr %5, align 8, !tbaa !179
  %6 = load ptr, ptr %4, align 8, !tbaa !179
  %7 = load i32, ptr %6, align 4, !tbaa !48
  %8 = load ptr, ptr %5, align 8, !tbaa !179
  %9 = load i32, ptr %8, align 4, !tbaa !48
  %10 = icmp slt i32 %7, %9
  br i1 %10, label %11, label %13

11:                                               ; preds = %2
  %12 = load ptr, ptr %5, align 8, !tbaa !179
  store ptr %12, ptr %3, align 8
  br label %15

13:                                               ; preds = %2
  %14 = load ptr, ptr %4, align 8, !tbaa !179
  store ptr %14, ptr %3, align 8
  br label %15

15:                                               ; preds = %13, %11
  %16 = load ptr, ptr %3, align 8
  ret ptr %16
}

; Function Attrs: mustprogress uwtable
define internal void @_ZN4ncnnL49convolution_im2col_gemm_get_optimal_tile_mnk_int8EiiiRiS0_S0_i(i32 noundef %0, i32 noundef %1, i32 noundef %2, ptr noundef nonnull align 4 dereferenceable(4) %3, ptr noundef nonnull align 4 dereferenceable(4) %4, ptr noundef nonnull align 4 dereferenceable(4) %5, i32 noundef %6) #2 {
  %8 = alloca i32, align 4
  %9 = alloca i32, align 4
  %10 = alloca i32, align 4
  %11 = alloca ptr, align 8
  %12 = alloca ptr, align 8
  %13 = alloca ptr, align 8
  %14 = alloca i32, align 4
  %15 = alloca i32, align 4
  %16 = alloca i32, align 4
  %17 = alloca i32, align 4
  %18 = alloca i32, align 4
  %19 = alloca i32, align 4
  %20 = alloca i32, align 4
  %21 = alloca i32, align 4
  %22 = alloca i32, align 4
  %23 = alloca i32, align 4
  %24 = alloca i32, align 4
  %25 = alloca i32, align 4
  %26 = alloca i32, align 4
  %27 = alloca i32, align 4
  %28 = alloca i32, align 4
  %29 = alloca i32, align 4
  %30 = alloca i32, align 4
  %31 = alloca i32, align 4
  %32 = alloca i32, align 4
  %33 = alloca i32, align 4
  %34 = alloca i32, align 4
  store i32 %0, ptr %8, align 4, !tbaa !48
  store i32 %1, ptr %9, align 4, !tbaa !48
  store i32 %2, ptr %10, align 4, !tbaa !48
  store ptr %3, ptr %11, align 8, !tbaa !179
  store ptr %4, ptr %12, align 8, !tbaa !179
  store ptr %5, ptr %13, align 8, !tbaa !179
  store i32 %6, ptr %14, align 4, !tbaa !48
  call void @llvm.lifetime.start.p0(i64 4, ptr %15) #14
  %35 = call noundef i32 @_ZN4ncnn25get_cpu_level2_cache_sizeEv()
  %36 = sext i32 %35 to i64
  %37 = udiv i64 %36, 1
  %38 = trunc i64 %37 to i32
  store i32 %38, ptr %15, align 4, !tbaa !48
  %39 = load i32, ptr %14, align 4, !tbaa !48
  %40 = icmp eq i32 %39, 0
  br i1 %40, label %41, label %43

41:                                               ; preds = %7
  %42 = call noundef i32 @_ZN4ncnn26get_physical_big_cpu_countEv()
  store i32 %42, ptr %14, align 4, !tbaa !48
  br label %43

43:                                               ; preds = %41, %7
  call void @llvm.lifetime.start.p0(i64 4, ptr %16) #14
  %44 = load i32, ptr %15, align 4, !tbaa !48
  %45 = sub nsw i32 %44, 32
  %46 = sdiv i32 %45, 8
  store i32 %46, ptr %16, align 4, !tbaa !48
  call void @llvm.lifetime.start.p0(i64 4, ptr %17) #14
  store i32 8, ptr %17, align 4, !tbaa !48
  call void @llvm.lifetime.start.p0(i64 4, ptr %18) #14
  %47 = load i32, ptr %16, align 4, !tbaa !48
  %48 = sdiv i32 %47, 8
  %49 = mul nsw i32 %48, 8
  store i32 %49, ptr %18, align 4, !tbaa !48
  %50 = call noundef nonnull align 4 dereferenceable(4) ptr @_ZSt3maxIiERKT_S2_S2_(ptr noundef nonnull align 4 dereferenceable(4) %17, ptr noundef nonnull align 4 dereferenceable(4) %18)
  %51 = load i32, ptr %50, align 4, !tbaa !48
  %52 = load ptr, ptr %13, align 8, !tbaa !179
  store i32 %51, ptr %52, align 4, !tbaa !48
  call void @llvm.lifetime.end.p0(i64 4, ptr %18) #14
  call void @llvm.lifetime.end.p0(i64 4, ptr %17) #14
  call void @llvm.lifetime.start.p0(i64 4, ptr %19) #14
  %53 = load i32, ptr %10, align 4, !tbaa !48
  %54 = load ptr, ptr %13, align 8, !tbaa !179
  %55 = load i32, ptr %54, align 4, !tbaa !48
  %56 = add nsw i32 %53, %55
  %57 = sub nsw i32 %56, 1
  %58 = load ptr, ptr %13, align 8, !tbaa !179
  %59 = load i32, ptr %58, align 4, !tbaa !48
  %60 = sdiv i32 %57, %59
  store i32 %60, ptr %19, align 4, !tbaa !48
  %61 = load ptr, ptr %13, align 8, !tbaa !179
  call void @llvm.lifetime.start.p0(i64 4, ptr %20) #14
  %62 = load i32, ptr %10, align 4, !tbaa !48
  %63 = load i32, ptr %19, align 4, !tbaa !48
  %64 = add nsw i32 %62, %63
  %65 = sub nsw i32 %64, 1
  %66 = load i32, ptr %19, align 4, !tbaa !48
  %67 = sdiv i32 %65, %66
  %68 = add nsw i32 %67, 7
  %69 = sdiv i32 %68, 8
  %70 = mul nsw i32 %69, 8
  store i32 %70, ptr %20, align 4, !tbaa !48
  %71 = call noundef nonnull align 4 dereferenceable(4) ptr @_ZSt3minIiERKT_S2_S2_(ptr noundef nonnull align 4 dereferenceable(4) %61, ptr noundef nonnull align 4 dereferenceable(4) %20)
  %72 = load i32, ptr %71, align 4, !tbaa !48
  %73 = load ptr, ptr %13, align 8, !tbaa !179
  store i32 %72, ptr %73, align 4, !tbaa !48
  call void @llvm.lifetime.end.p0(i64 4, ptr %20) #14
  call void @llvm.lifetime.end.p0(i64 4, ptr %19) #14
  call void @llvm.lifetime.end.p0(i64 4, ptr %16) #14
  call void @llvm.lifetime.start.p0(i64 4, ptr %21) #14
  %74 = load i32, ptr %8, align 4, !tbaa !48
  %75 = add nsw i32 %74, 31
  %76 = sdiv i32 %75, 32
  store i32 %76, ptr %21, align 4, !tbaa !48
  call void @llvm.lifetime.start.p0(i64 4, ptr %22) #14
  store i32 8, ptr %22, align 4, !tbaa !48
  call void @llvm.lifetime.start.p0(i64 4, ptr %23) #14
  %77 = load i32, ptr %8, align 4, !tbaa !48
  %78 = load i32, ptr %21, align 4, !tbaa !48
  %79 = add nsw i32 %77, %78
  %80 = sub nsw i32 %79, 1
  %81 = load i32, ptr %21, align 4, !tbaa !48
  %82 = sdiv i32 %80, %81
  %83 = add nsw i32 %82, 7
  %84 = sdiv i32 %83, 8
  %85 = mul nsw i32 %84, 8
  store i32 %85, ptr %23, align 4, !tbaa !48
  %86 = call noundef nonnull align 4 dereferenceable(4) ptr @_ZSt3maxIiERKT_S2_S2_(ptr noundef nonnull align 4 dereferenceable(4) %22, ptr noundef nonnull align 4 dereferenceable(4) %23)
  %87 = load i32, ptr %86, align 4, !tbaa !48
  %88 = load ptr, ptr %11, align 8, !tbaa !179
  store i32 %87, ptr %88, align 4, !tbaa !48
  call void @llvm.lifetime.end.p0(i64 4, ptr %23) #14
  call void @llvm.lifetime.end.p0(i64 4, ptr %22) #14
  call void @llvm.lifetime.end.p0(i64 4, ptr %21) #14
  call void @llvm.lifetime.start.p0(i64 4, ptr %24) #14
  %89 = call noundef i32 @_ZN4ncnn22get_physical_cpu_countEv()
  store i32 %89, ptr %24, align 4, !tbaa !48
  %90 = call noundef nonnull align 4 dereferenceable(4) ptr @_ZSt3minIiERKT_S2_S2_(ptr noundef nonnull align 4 dereferenceable(4) %14, ptr noundef nonnull align 4 dereferenceable(4) %24)
  %91 = load i32, ptr %90, align 4, !tbaa !48
  %92 = load ptr, ptr %11, align 8, !tbaa !179
  %93 = load i32, ptr %92, align 4, !tbaa !48
  %94 = mul nsw i32 %93, %91
  store i32 %94, ptr %92, align 4, !tbaa !48
  call void @llvm.lifetime.end.p0(i64 4, ptr %24) #14
  call void @llvm.lifetime.start.p0(i64 4, ptr %25) #14
  %95 = load i32, ptr %8, align 4, !tbaa !48
  %96 = load ptr, ptr %11, align 8, !tbaa !179
  %97 = load i32, ptr %96, align 4, !tbaa !48
  %98 = add nsw i32 %95, %97
  %99 = sub nsw i32 %98, 1
  %100 = load ptr, ptr %11, align 8, !tbaa !179
  %101 = load i32, ptr %100, align 4, !tbaa !48
  %102 = sdiv i32 %99, %101
  store i32 %102, ptr %25, align 4, !tbaa !48
  %103 = load ptr, ptr %11, align 8, !tbaa !179
  call void @llvm.lifetime.start.p0(i64 4, ptr %26) #14
  %104 = load i32, ptr %8, align 4, !tbaa !48
  %105 = load i32, ptr %25, align 4, !tbaa !48
  %106 = add nsw i32 %104, %105
  %107 = sub nsw i32 %106, 1
  %108 = load i32, ptr %25, align 4, !tbaa !48
  %109 = sdiv i32 %107, %108
  %110 = add nsw i32 %109, 7
  %111 = sdiv i32 %110, 8
  %112 = mul nsw i32 %111, 8
  store i32 %112, ptr %26, align 4, !tbaa !48
  %113 = call noundef nonnull align 4 dereferenceable(4) ptr @_ZSt3minIiERKT_S2_S2_(ptr noundef nonnull align 4 dereferenceable(4) %103, ptr noundef nonnull align 4 dereferenceable(4) %26)
  %114 = load i32, ptr %113, align 4, !tbaa !48
  %115 = load ptr, ptr %11, align 8, !tbaa !179
  store i32 %114, ptr %115, align 4, !tbaa !48
  call void @llvm.lifetime.end.p0(i64 4, ptr %26) #14
  %116 = load i32, ptr %14, align 4, !tbaa !48
  %117 = icmp sgt i32 %116, 1
  br i1 %117, label %118, label %132

118:                                              ; preds = %43
  %119 = load ptr, ptr %11, align 8, !tbaa !179
  call void @llvm.lifetime.start.p0(i64 4, ptr %27) #14
  call void @llvm.lifetime.start.p0(i64 4, ptr %28) #14
  store i32 1, ptr %28, align 4, !tbaa !48
  call void @llvm.lifetime.start.p0(i64 4, ptr %29) #14
  %120 = load ptr, ptr %11, align 8, !tbaa !179
  %121 = load i32, ptr %120, align 4, !tbaa !48
  %122 = load i32, ptr %14, align 4, !tbaa !48
  %123 = sdiv i32 %121, %122
  store i32 %123, ptr %29, align 4, !tbaa !48
  %124 = call noundef nonnull align 4 dereferenceable(4) ptr @_ZSt3maxIiERKT_S2_S2_(ptr noundef nonnull align 4 dereferenceable(4) %28, ptr noundef nonnull align 4 dereferenceable(4) %29)
  %125 = load i32, ptr %124, align 4, !tbaa !48
  %126 = add nsw i32 %125, 7
  %127 = sdiv i32 %126, 8
  %128 = mul nsw i32 %127, 8
  store i32 %128, ptr %27, align 4, !tbaa !48
  %129 = call noundef nonnull align 4 dereferenceable(4) ptr @_ZSt3minIiERKT_S2_S2_(ptr noundef nonnull align 4 dereferenceable(4) %119, ptr noundef nonnull align 4 dereferenceable(4) %27)
  %130 = load i32, ptr %129, align 4, !tbaa !48
  %131 = load ptr, ptr %11, align 8, !tbaa !179
  store i32 %130, ptr %131, align 4, !tbaa !48
  call void @llvm.lifetime.end.p0(i64 4, ptr %29) #14
  call void @llvm.lifetime.end.p0(i64 4, ptr %28) #14
  call void @llvm.lifetime.end.p0(i64 4, ptr %27) #14
  br label %132

132:                                              ; preds = %118, %43
  call void @llvm.lifetime.end.p0(i64 4, ptr %25) #14
  %133 = load i32, ptr %9, align 4, !tbaa !48
  %134 = icmp sgt i32 %133, 0
  br i1 %134, label %135, label %194

135:                                              ; preds = %132
  call void @llvm.lifetime.start.p0(i64 4, ptr %30) #14
  %136 = load ptr, ptr %13, align 8, !tbaa !179
  %137 = load i32, ptr %136, align 4, !tbaa !48
  %138 = load i32, ptr %10, align 4, !tbaa !48
  %139 = icmp sge i32 %137, %138
  br i1 %139, label %140, label %151

140:                                              ; preds = %135
  %141 = load i32, ptr %15, align 4, !tbaa !48
  %142 = load ptr, ptr %11, align 8, !tbaa !179
  %143 = load i32, ptr %142, align 4, !tbaa !48
  %144 = load ptr, ptr %13, align 8, !tbaa !179
  %145 = load i32, ptr %144, align 4, !tbaa !48
  %146 = mul nsw i32 %143, %145
  %147 = sub nsw i32 %141, %146
  %148 = load ptr, ptr %13, align 8, !tbaa !179
  %149 = load i32, ptr %148, align 4, !tbaa !48
  %150 = sdiv i32 %147, %149
  store i32 %150, ptr %30, align 4, !tbaa !48
  br label %166

151:                                              ; preds = %135
  %152 = load i32, ptr %15, align 4, !tbaa !48
  %153 = load ptr, ptr %11, align 8, !tbaa !179
  %154 = load i32, ptr %153, align 4, !tbaa !48
  %155 = load ptr, ptr %13, align 8, !tbaa !179
  %156 = load i32, ptr %155, align 4, !tbaa !48
  %157 = mul nsw i32 %154, %156
  %158 = sub nsw i32 %152, %157
  %159 = load ptr, ptr %11, align 8, !tbaa !179
  %160 = load i32, ptr %159, align 4, !tbaa !48
  %161 = mul nsw i32 %160, 4
  %162 = load ptr, ptr %13, align 8, !tbaa !179
  %163 = load i32, ptr %162, align 4, !tbaa !48
  %164 = add nsw i32 %161, %163
  %165 = sdiv i32 %158, %164
  store i32 %165, ptr %30, align 4, !tbaa !48
  br label %166

166:                                              ; preds = %151, %140
  call void @llvm.lifetime.start.p0(i64 4, ptr %31) #14
  store i32 8, ptr %31, align 4, !tbaa !48
  call void @llvm.lifetime.start.p0(i64 4, ptr %32) #14
  %167 = load i32, ptr %30, align 4, !tbaa !48
  %168 = sdiv i32 %167, 8
  %169 = mul nsw i32 %168, 8
  store i32 %169, ptr %32, align 4, !tbaa !48
  %170 = call noundef nonnull align 4 dereferenceable(4) ptr @_ZSt3maxIiERKT_S2_S2_(ptr noundef nonnull align 4 dereferenceable(4) %31, ptr noundef nonnull align 4 dereferenceable(4) %32)
  %171 = load i32, ptr %170, align 4, !tbaa !48
  %172 = load ptr, ptr %12, align 8, !tbaa !179
  store i32 %171, ptr %172, align 4, !tbaa !48
  call void @llvm.lifetime.end.p0(i64 4, ptr %32) #14
  call void @llvm.lifetime.end.p0(i64 4, ptr %31) #14
  call void @llvm.lifetime.start.p0(i64 4, ptr %33) #14
  %173 = load i32, ptr %9, align 4, !tbaa !48
  %174 = load ptr, ptr %12, align 8, !tbaa !179
  %175 = load i32, ptr %174, align 4, !tbaa !48
  %176 = add nsw i32 %173, %175
  %177 = sub nsw i32 %176, 1
  %178 = load ptr, ptr %12, align 8, !tbaa !179
  %179 = load i32, ptr %178, align 4, !tbaa !48
  %180 = sdiv i32 %177, %179
  store i32 %180, ptr %33, align 4, !tbaa !48
  %181 = load ptr, ptr %12, align 8, !tbaa !179
  call void @llvm.lifetime.start.p0(i64 4, ptr %34) #14
  %182 = load i32, ptr %9, align 4, !tbaa !48
  %183 = load i32, ptr %33, align 4, !tbaa !48
  %184 = add nsw i32 %182, %183
  %185 = sub nsw i32 %184, 1
  %186 = load i32, ptr %33, align 4, !tbaa !48
  %187 = sdiv i32 %185, %186
  %188 = add nsw i32 %187, 7
  %189 = sdiv i32 %188, 8
  %190 = mul nsw i32 %189, 8
  store i32 %190, ptr %34, align 4, !tbaa !48
  %191 = call noundef nonnull align 4 dereferenceable(4) ptr @_ZSt3minIiERKT_S2_S2_(ptr noundef nonnull align 4 dereferenceable(4) %181, ptr noundef nonnull align 4 dereferenceable(4) %34)
  %192 = load i32, ptr %191, align 4, !tbaa !48
  %193 = load ptr, ptr %12, align 8, !tbaa !179
  store i32 %192, ptr %193, align 4, !tbaa !48
  call void @llvm.lifetime.end.p0(i64 4, ptr %34) #14
  call void @llvm.lifetime.end.p0(i64 4, ptr %33) #14
  call void @llvm.lifetime.end.p0(i64 4, ptr %30) #14
  br label %194

194:                                              ; preds = %166, %132
  call void @llvm.lifetime.end.p0(i64 4, ptr %15) #14
  ret void
}