; Function Attrs: mustprogress uwtable
define internal fastcc void @_ZN4ncnnL49convolution_im2col_gemm_get_optimal_tile_mnk_int8EiiiRiS0_S0_i(i32 noundef %0, i32 noundef %1, i32 noundef %2, ptr noundef nonnull align 4 captures(none) dereferenceable(4) initializes((0, 4)) %3, ptr noundef nonnull writeonly align 4 captures(none) dereferenceable(4) %4, ptr noundef nonnull align 4 captures(none) dereferenceable(4) initializes((0, 4)) %5, i32 noundef %6) unnamed_addr #2 {
  %8 = tail call noundef i32 @_ZN4ncnn25get_cpu_level2_cache_sizeEv()
  %9 = icmp eq i32 %6, 0
  br i1 %9, label %10, label %12

10:                                               ; preds = %7
  %11 = tail call noundef i32 @_ZN4ncnn26get_physical_big_cpu_countEv()
  br label %12

12:                                               ; preds = %10, %7
  %.0105 = phi i32 [ %11, %10 ], [ %6, %7 ]
  %13 = add nsw i32 %8, -32
  %14 = sdiv i32 %13, 64
  %15 = shl nsw i32 %14, 3
  %.sroa.speculated95 = tail call i32 @llvm.smax.i32(i32 %15, i32 8)
  %16 = add i32 %2, -1
  %17 = add i32 %16, %.sroa.speculated95
  %18 = sdiv i32 %17, %.sroa.speculated95
  %19 = add i32 %16, %18
  %20 = sdiv i32 %19, %18
  %21 = add nsw i32 %20, 7
  %22 = sdiv i32 %21, 8
  %23 = shl nsw i32 %22, 3
  %.sroa.speculated91 = tail call i32 @llvm.smin.i32(i32 %23, i32 %.sroa.speculated95)
  store i32 %.sroa.speculated91, ptr %5, align 4, !tbaa !75
  %24 = add nsw i32 %0, 31
  %25 = sdiv i32 %24, 32
  %26 = add i32 %0, -1
  %27 = add i32 %26, %25
  %28 = sdiv i32 %27, %25
  %29 = add nsw i32 %28, 7
  %30 = sdiv i32 %29, 8
  %31 = shl nsw i32 %30, 3
  %.sroa.speculated85 = tail call i32 @llvm.smax.i32(i32 %31, i32 8)
  store i32 %.sroa.speculated85, ptr %3, align 4, !tbaa !75
  %32 = tail call noundef i32 @_ZN4ncnn22get_physical_cpu_countEv()
  %.sroa.speculated81 = tail call i32 @llvm.smin.i32(i32 %32, i32 %.0105)
  %33 = load i32, ptr %3, align 4, !tbaa !75
  %34 = mul nsw i32 %33, %.sroa.speculated81
  %35 = add i32 %26, %34
  %36 = sdiv i32 %35, %34
  %37 = add i32 %26, %36
  %38 = sdiv i32 %37, %36
  %39 = add nsw i32 %38, 7
  %40 = sdiv i32 %39, 8
  %41 = shl nsw i32 %40, 3
  %.sroa.speculated77 = tail call i32 @llvm.smin.i32(i32 %41, i32 %34)
  %42 = icmp sgt i32 %.0105, 1
  br i1 %42, label %43, label %47

43:                                               ; preds = %12
  %44 = sdiv i32 %.sroa.speculated77, %.0105
  %.sroa.speculated67 = tail call i32 @llvm.smax.i32(i32 %44, i32 1)
  %45 = add nuw nsw i32 %.sroa.speculated67, 7
  %46 = and i32 %45, 2147483640
  %.sroa.speculated73 = tail call i32 @llvm.smin.i32(i32 %46, i32 %.sroa.speculated77)
  br label %47

47:                                               ; preds = %43, %12
  %48 = phi i32 [ %.sroa.speculated73, %43 ], [ %.sroa.speculated77, %12 ]
  store i32 %48, ptr %3, align 4, !tbaa !75
  %49 = icmp sgt i32 %1, 0
  br i1 %49, label %50, label %66

50:                                               ; preds = %47
  %51 = load i32, ptr %5, align 4, !tbaa !75
  %.not = icmp slt i32 %51, %2
  %52 = mul nsw i32 %48, %51
  %53 = sub nsw i32 %8, %52
  %54 = shl nsw i32 %48, 2
  %55 = select i1 %.not, i32 %54, i32 0
  %.sink = add nsw i32 %51, %55
  %56 = sdiv i32 %53, %.sink
  %57 = sdiv i32 %56, 8
  %58 = shl nsw i32 %57, 3
  %.sroa.speculated61 = tail call i32 @llvm.smax.i32(i32 %58, i32 8)
  %59 = add nsw i32 %1, -1
  %60 = add nuw i32 %59, %.sroa.speculated61
  %61 = udiv i32 %60, %.sroa.speculated61
  %62 = add nuw i32 %59, %61
  %63 = udiv i32 %62, %61
  %64 = add nuw nsw i32 %63, 7
  %65 = and i32 %64, -8
  %.sroa.speculated = tail call i32 @llvm.umin.i32(i32 %65, i32 %.sroa.speculated61)
  store i32 %.sroa.speculated, ptr %4, align 4, !tbaa !75
  br label %66

66:                                               ; preds = %50, %47
  ret void
}